0000000000401a8b <start_farm>:
  401a8b:	b8 01 00 00 00       	mov    $0x1,%eax
  401a90:	c3                   	retq   

0000000000401a91 <getval_179>:
  401a91:	b8 ee 6e 58 90       	mov    $0x90586eee,%eax
  401a96:	c3                   	retq   

0000000000401a97 <setval_296>:
  401a97:	c7 07 48 89 c7 90    	movl   $0x90c78948,(%rdi)
  401a9d:	c3                   	retq   

0000000000401a9e <addval_436>:
  401a9e:	8d 87 48 89 c7 c3    	lea    -0x3c3876b8(%rdi),%eax
  401aa4:	c3                   	retq   

0000000000401aa5 <setval_215>:
  401aa5:	c7 07 58 90 90 90    	movl   $0x90909058,(%rdi)
  401aab:	c3                   	retq   

0000000000401aac <addval_113>:
  401aac:	8d 87 48 88 c7 c3    	lea    -0x3c3877b8(%rdi),%eax
  401ab2:	c3                   	retq   

0000000000401ab3 <getval_423>:
  401ab3:	b8 a7 58 89 c7       	mov    $0xc78958a7,%eax
  401ab8:	c3                   	retq   

0000000000401ab9 <getval_317>:
  401ab9:	b8 3a 78 c3 85       	mov    $0x85c3783a,%eax
  401abe:	c3                   	retq   

0000000000401abf <getval_166>:
  401abf:	b8 cb 18 c3 bf       	mov    $0xbfc318cb,%eax
  401ac4:	c3                   	retq   

0000000000401ac5 <mid_farm>:
  401ac5:	b8 01 00 00 00       	mov    $0x1,%eax
  401aca:	c3                   	retq   

0000000000401acb <add_xy>:
  401acb:	48 8d 04 37          	lea    (%rdi,%rsi,1),%rax
  401acf:	c3                   	retq   

0000000000401ad0 <addval_165>:
  401ad0:	8d 87 1f c5 81 c1    	lea    -0x3e7e3ae1(%rdi),%eax
  401ad6:	c3                   	retq   

0000000000401ad7 <getval_490>:
  401ad7:	b8 02 09 c1 90       	mov    $0x90c10902,%eax
  401adc:	c3                   	retq   

0000000000401add <setval_145>:
  401add:	c7 07 48 89 e0 90    	movl   $0x90e08948,(%rdi)
  401ae3:	c3                   	retq   

0000000000401ae4 <setval_324>:
  401ae4:	c7 07 89 d6 84 d2    	movl   $0xd284d689,(%rdi)
  401aea:	c3                   	retq   

0000000000401aeb <getval_426>:
  401aeb:	b8 89 d6 94 90       	mov    $0x9094d689,%eax
  401af0:	c3                   	retq   

0000000000401af1 <setval_184>:
  401af1:	c7 07 89 c1 28 c0    	movl   $0xc028c189,(%rdi)
  401af7:	c3                   	retq   

0000000000401af8 <setval_122>:
  401af8:	c7 07 8d d6 20 d2    	movl   $0xd220d68d,(%rdi)
  401afe:	c3                   	retq   

0000000000401aff <setval_483>:
  401aff:	c7 07 a9 d6 38 d2    	movl   $0xd238d6a9,(%rdi)
  401b05:	c3                   	retq   

0000000000401b06 <addval_110>:
  401b06:	8d 87 48 8d e0 90    	lea    -0x6f1f72b8(%rdi),%eax
  401b0c:	c3                   	retq   

0000000000401b0d <addval_114>:
  401b0d:	8d 87 89 c1 38 db    	lea    -0x24c73e77(%rdi),%eax
  401b13:	c3                   	retq   

0000000000401b14 <addval_491>:
  401b14:	8d 87 99 c1 20 db    	lea    -0x24df3e67(%rdi),%eax
  401b1a:	c3                   	retq   

0000000000401b1b <addval_463>:
  401b1b:	8d 87 89 ca 90 c3    	lea    -0x3c6f3577(%rdi),%eax
  401b21:	c3                   	retq   

0000000000401b22 <setval_307>:
  401b22:	c7 07 88 ca 84 db    	movl   $0xdb84ca88,(%rdi)
  401b28:	c3                   	retq   

0000000000401b29 <addval_172>:
  401b29:	8d 87 89 d6 38 c9    	lea    -0x36c72977(%rdi),%eax
  401b2f:	c3                   	retq   

0000000000401b30 <getval_129>:
  401b30:	b8 89 d6 48 db       	mov    $0xdb48d689,%eax
  401b35:	c3                   	retq   

0000000000401b36 <setval_430>:
  401b36:	c7 07 c4 89 ca 94    	movl   $0x94ca89c4,(%rdi)
  401b3c:	c3                   	retq   

0000000000401b3d <setval_249>:
  401b3d:	c7 07 89 ca 78 c9    	movl   $0xc978ca89,(%rdi)
  401b43:	c3                   	retq   

0000000000401b44 <setval_216>:
  401b44:	c7 07 48 89 e0 c7    	movl   $0xc7e08948,(%rdi)
  401b4a:	c3                   	retq   

0000000000401b4b <getval_231>:
  401b4b:	b8 48 89 e0 c3       	mov    $0xc3e08948,%eax
  401b50:	c3                   	retq   

0000000000401b51 <addval_183>:
  401b51:	8d 87 81 ca 84 c0    	lea    -0x3f7b357f(%rdi),%eax
  401b57:	c3                   	retq   

0000000000401b58 <setval_481>:
  401b58:	c7 07 48 89 e0 c7    	movl   $0xc7e08948,(%rdi)
  401b5e:	c3                   	retq   

0000000000401b5f <getval_213>:
  401b5f:	b8 48 89 e0 94       	mov    $0x94e08948,%eax
  401b64:	c3                   	retq   

0000000000401b65 <getval_407>:
  401b65:	b8 89 d6 91 90       	mov    $0x9091d689,%eax
  401b6a:	c3                   	retq   

0000000000401b6b <getval_238>:
  401b6b:	b8 89 ca 91 90       	mov    $0x9091ca89,%eax
  401b70:	c3                   	retq   

0000000000401b71 <getval_421>:
  401b71:	b8 b3 99 c1 c3       	mov    $0xc3c199b3,%eax
  401b76:	c3                   	retq   

0000000000401b77 <getval_121>:
  401b77:	b8 89 ca 91 90       	mov    $0x9091ca89,%eax
  401b7c:	c3                   	retq   

0000000000401b7d <setval_169>:
  401b7d:	c7 07 89 c1 84 c9    	movl   $0xc984c189,(%rdi)
  401b83:	c3                   	retq   

0000000000401b84 <setval_191>:
  401b84:	c7 07 a9 d6 20 db    	movl   $0xdb20d6a9,(%rdi)
  401b8a:	c3                   	retq   

0000000000401b8b <addval_224>:
  401b8b:	8d 87 40 89 e0 c3    	lea    -0x3c1f76c0(%rdi),%eax
  401b91:	c3                   	retq   

0000000000401b92 <addval_394>:
  401b92:	8d 87 3d 92 89 ca    	lea    -0x35766dc3(%rdi),%eax
  401b98:	c3                   	retq   

0000000000401b99 <setval_387>:
  401b99:	c7 07 89 c1 60 c9    	movl   $0xc960c189,(%rdi)
  401b9f:	c3                   	retq   

0000000000401ba0 <getval_484>:
  401ba0:	b8 48 89 e0 c1       	mov    $0xc1e08948,%eax
  401ba5:	c3                   	retq   

0000000000401ba6 <end_farm>:
  401ba6:	b8 01 00 00 00       	mov    $0x1,%eax
  401bab:	c3                   	retq   